; Function Attrs: nounwind uwtable
define internal fastcc ptr @AllocString(ptr nocapture noundef %0, ptr nocapture noundef readonly %1) unnamed_addr #0 {
  %3 = tail call i64 @strlen(ptr noundef nonnull dereferenceable(1) %1) #19
  %4 = trunc i64 %3 to i32
  %5 = getelementptr inbounds i8, ptr %0, i64 271344
  %6 = getelementptr inbounds i8, ptr %0, i64 271352
  %7 = load i32, ptr %6, align 8
  %8 = getelementptr inbounds i8, ptr %0, i64 271356
  %9 = load i32, ptr %8, align 4
  %10 = sub i32 %7, %9
  %11 = and i32 %4, -8
  %12 = add i32 %11, 8
  %13 = icmp ugt i32 %12, %10
  br i1 %13, label %14, label %thread-pre-split.i

14:                                               ; preds = %2
  %15 = icmp eq i32 %7, 0
  %16 = shl i32 %7, 1
  %storemerge.i = select i1 %15, i32 20480, i32 %16
  %storemerge25.i = tail call i32 @llvm.umax.i32(i32 %storemerge.i, i32 %12)
  store i32 %storemerge25.i, ptr %6, align 8
  store i32 0, ptr %8, align 4
  %17 = getelementptr inbounds i8, ptr %0, i64 271736
  %18 = load ptr, ptr %17, align 8
  %19 = tail call ptr @_cmsMallocZero(ptr noundef %18, i32 noundef %storemerge25.i) #17
  %.not.i.i = icmp eq ptr %19, null
  br i1 %.not.i.i, label %AllocBigBlock.exit.i, label %20

20:                                               ; preds = %14
  %21 = load ptr, ptr %17, align 8
  %22 = tail call ptr @_cmsMallocZero(ptr noundef %21, i32 noundef 16) #17
  %23 = icmp eq ptr %22, null
  br i1 %23, label %24, label %26

24:                                               ; preds = %20
  %25 = load ptr, ptr %17, align 8
  tail call void @_cmsFree(ptr noundef %25, ptr noundef nonnull %19) #17
  br label %AllocBigBlock.exit.i

26:                                               ; preds = %20
  %27 = getelementptr inbounds i8, ptr %22, i64 8
  store ptr %19, ptr %27, align 8
  %28 = getelementptr inbounds i8, ptr %0, i64 271336
  %29 = load ptr, ptr %28, align 8
  store ptr %29, ptr %22, align 8
  store ptr %22, ptr %28, align 8
  br label %AllocBigBlock.exit.i

AllocBigBlock.exit.i:                             ; preds = %26, %24, %14
  %.0.i.i = phi ptr [ null, %24 ], [ %19, %26 ], [ null, %14 ]
  store ptr %.0.i.i, ptr %5, align 8
  br label %30

thread-pre-split.i:                               ; preds = %2
  %.pr.i = load ptr, ptr %5, align 8
  br label %30

30:                                               ; preds = %thread-pre-split.i, %AllocBigBlock.exit.i
  %31 = phi ptr [ %.pr.i, %thread-pre-split.i ], [ %.0.i.i, %AllocBigBlock.exit.i ]
  %32 = icmp eq ptr %31, null
  br i1 %32, label %AllocChunk.exit.thread, label %AllocChunk.exit

AllocChunk.exit:                                  ; preds = %30
  %33 = load i32, ptr %8, align 4
  %34 = add i32 %33, %12
  store i32 %34, ptr %8, align 4
  %35 = zext i32 %33 to i64
  %36 = getelementptr inbounds i8, ptr %31, i64 %35
  %37 = and i64 %3, 4294967295
  tail call void @llvm.memcpy.p0.p0.i64(ptr nonnull align 1 %36, ptr align 1 %1, i64 %37, i1 false)
  br label %AllocChunk.exit.thread

AllocChunk.exit.thread:                           ; preds = %30, %AllocChunk.exit
  %.0.i9 = phi ptr [ %36, %AllocChunk.exit ], [ null, %30 ]
  ret ptr %.0.i9
}